
_memtest2:     file format elf32-i386


Disassembly of section .text:

00000000 <main>:
	exit();
}

int
main(int argc, char *argv[])
{
   0:	8d 4c 24 04          	lea    0x4(%esp),%ecx
   4:	83 e4 f0             	and    $0xfffffff0,%esp
   7:	ff 71 fc             	pushl  -0x4(%ecx)
   a:	55                   	push   %ebp
   b:	89 e5                	mov    %esp,%ebp
   d:	51                   	push   %ecx
   e:	83 ec 0c             	sub    $0xc,%esp
	printf(1, "memtest starting\n");
  11:	68 53 08 00 00       	push   $0x853
  16:	6a 01                	push   $0x1
  18:	e8 d3 04 00 00       	call   4f0 <printf>
	mem();
  1d:	e8 0e 00 00 00       	call   30 <mem>
  22:	66 90                	xchg   %ax,%ax
  24:	66 90                	xchg   %ax,%ax
  26:	66 90                	xchg   %ax,%ax
  28:	66 90                	xchg   %ax,%ax
  2a:	66 90                	xchg   %ax,%ax
  2c:	66 90                	xchg   %ax,%ax
  2e:	66 90                	xchg   %ax,%ax

00000030 <mem>:
{
  30:	55                   	push   %ebp
  31:	89 e5                	mov    %esp,%ebp
  33:	57                   	push   %edi
  34:	56                   	push   %esi
  35:	53                   	push   %ebx
  36:	83 ec 14             	sub    $0x14,%esp
	printf(1, "mem test\n");
  39:	68 10 08 00 00       	push   $0x810
  3e:	6a 01                	push   $0x1
  40:	e8 ab 04 00 00       	call   4f0 <printf>
	m1 = malloc(4096);
  45:	c7 04 24 00 10 00 00 	movl   $0x1000,(%esp)
  4c:	e8 cf 06 00 00       	call   720 <malloc>
	if (m1 == 0)
  51:	83 c4 10             	add    $0x10,%esp
  54:	85 c0                	test   %eax,%eax
  56:	74 30                	je     88 <mem+0x58>
  58:	89 c6                	mov    %eax,%esi
  5a:	89 c3                	mov    %eax,%ebx
	uint count = 0;
  5c:	31 ff                	xor    %edi,%edi
  5e:	eb 14                	jmp    74 <mem+0x44>
		((int*)m1)[2] = count++;
  60:	8d 57 01             	lea    0x1(%edi),%edx
		*(char**)m1 = m2;
  63:	89 03                	mov    %eax,(%ebx)
		((int*)m1)[2] = count++;
  65:	89 7b 08             	mov    %edi,0x8(%ebx)
		cur += 4096;
  68:	89 c3                	mov    %eax,%ebx
	while (cur < TOTAL_MEMORY) {
  6a:	81 fa 40 01 00 00    	cmp    $0x140,%edx
  70:	74 2a                	je     9c <mem+0x6c>
  72:	89 d7                	mov    %edx,%edi
		m2 = malloc(4096);
  74:	83 ec 0c             	sub    $0xc,%esp
  77:	68 00 10 00 00       	push   $0x1000
  7c:	e8 9f 06 00 00       	call   720 <malloc>
		if (m2 == 0)
  81:	83 c4 10             	add    $0x10,%esp
  84:	85 c0                	test   %eax,%eax
  86:	75 d8                	jne    60 <mem+0x30>
	printf(1, "test failed!\n");
  88:	83 ec 08             	sub    $0x8,%esp
  8b:	68 45 08 00 00       	push   $0x845
  90:	6a 01                	push   $0x1
  92:	e8 59 04 00 00       	call   4f0 <printf>
	exit();
  97:	e8 f6 02 00 00       	call   392 <exit>
	((int*)m1)[2] = count;
  9c:	c7 40 08 40 01 00 00 	movl   $0x140,0x8(%eax)
		if (((int*)m1)[2] != count)
  a3:	83 7e 08 00          	cmpl   $0x0,0x8(%esi)
  a7:	75 df                	jne    88 <mem+0x58>
  a9:	89 f2                	mov    %esi,%edx
	count = 0;
  ab:	31 c0                	xor    %eax,%eax
  ad:	eb 06                	jmp    b5 <mem+0x85>
  af:	90                   	nop
		if (((int*)m1)[2] != count)
  b0:	39 42 08             	cmp    %eax,0x8(%edx)
  b3:	75 d3                	jne    88 <mem+0x58>
		count++;
  b5:	83 c0 01             	add    $0x1,%eax
		m1 = *(char**)m1;
  b8:	8b 12                	mov    (%edx),%edx
	while (count != total_count) {
  ba:	3d 40 01 00 00       	cmp    $0x140,%eax
  bf:	75 ef                	jne    b0 <mem+0x80>
	if (swap(start) != 0)
  c1:	83 ec 0c             	sub    $0xc,%esp
  c4:	56                   	push   %esi
  c5:	e8 70 03 00 00       	call   43a <swap>
  ca:	83 c4 10             	add    $0x10,%esp
  cd:	85 c0                	test   %eax,%eax
  cf:	75 40                	jne    111 <mem+0xe1>
	pid = fork();
  d1:	e8 b4 02 00 00       	call   38a <fork>
	if (pid == 0){
  d6:	85 c0                	test   %eax,%eax
  d8:	74 21                	je     fb <mem+0xcb>
	else if (pid < 0)
  da:	78 48                	js     124 <mem+0xf4>
		wait();
  dc:	e8 b9 02 00 00       	call   39a <wait>
	printf(1, "mem ok %d\n", bstat());
  e1:	e8 4c 03 00 00       	call   432 <bstat>
  e6:	52                   	push   %edx
  e7:	50                   	push   %eax
  e8:	68 3a 08 00 00       	push   $0x83a
  ed:	6a 01                	push   $0x1
  ef:	e8 fc 03 00 00       	call   4f0 <printf>
	exit();
  f4:	e8 99 02 00 00       	call   392 <exit>
  f9:	89 d0                	mov    %edx,%eax
			if (((int*)m1)[2] != count){
  fb:	39 46 08             	cmp    %eax,0x8(%esi)
  fe:	75 88                	jne    88 <mem+0x58>
			m1 = *(char**)m1;
 100:	8b 36                	mov    (%esi),%esi
			count++;
 102:	8d 50 01             	lea    0x1(%eax),%edx
		while (count != total_count) {
 105:	3d 3f 01 00 00       	cmp    $0x13f,%eax
 10a:	75 ed                	jne    f9 <mem+0xc9>
		exit();
 10c:	e8 81 02 00 00       	call   392 <exit>
		printf(1, "failed to swap %p\n", start);
 111:	53                   	push   %ebx
 112:	56                   	push   %esi
 113:	68 1a 08 00 00       	push   $0x81a
 118:	6a 01                	push   $0x1
 11a:	e8 d1 03 00 00       	call   4f0 <printf>
 11f:	83 c4 10             	add    $0x10,%esp
 122:	eb ad                	jmp    d1 <mem+0xa1>
		printf(1, "fork failed\n");
 124:	51                   	push   %ecx
 125:	51                   	push   %ecx
 126:	68 2d 08 00 00       	push   $0x82d
 12b:	6a 01                	push   $0x1
 12d:	e8 be 03 00 00       	call   4f0 <printf>
 132:	83 c4 10             	add    $0x10,%esp
 135:	eb aa                	jmp    e1 <mem+0xb1>
 137:	66 90                	xchg   %ax,%ax
 139:	66 90                	xchg   %ax,%ax
 13b:	66 90                	xchg   %ax,%ax
 13d:	66 90                	xchg   %ax,%ax
 13f:	90                   	nop

00000140 <strcpy>:
 140:	55                   	push   %ebp
 141:	89 e5                	mov    %esp,%ebp
 143:	53                   	push   %ebx
 144:	8b 45 08             	mov    0x8(%ebp),%eax
 147:	8b 4d 0c             	mov    0xc(%ebp),%ecx
 14a:	89 c2                	mov    %eax,%edx
 14c:	8d 74 26 00          	lea    0x0(%esi,%eiz,1),%esi
 150:	83 c1 01             	add    $0x1,%ecx
 153:	0f b6 59 ff          	movzbl -0x1(%ecx),%ebx
 157:	83 c2 01             	add    $0x1,%edx
 15a:	84 db                	test   %bl,%bl
 15c:	88 5a ff             	mov    %bl,-0x1(%edx)
 15f:	75 ef                	jne    150 <strcpy+0x10>
 161:	5b                   	pop    %ebx
 162:	5d                   	pop    %ebp
 163:	c3                   	ret    
 164:	8d b6 00 00 00 00    	lea    0x0(%esi),%esi
 16a:	8d bf 00 00 00 00    	lea    0x0(%edi),%edi

00000170 <strcmp>:
 170:	55                   	push   %ebp
 171:	89 e5                	mov    %esp,%ebp
 173:	53                   	push   %ebx
 174:	8b 55 08             	mov    0x8(%ebp),%edx
 177:	8b 4d 0c             	mov    0xc(%ebp),%ecx
 17a:	0f b6 02             	movzbl (%edx),%eax
 17d:	0f b6 19             	movzbl (%ecx),%ebx
 180:	84 c0                	test   %al,%al
 182:	75 1c                	jne    1a0 <strcmp+0x30>
 184:	eb 2a                	jmp    1b0 <strcmp+0x40>
 186:	8d 76 00             	lea    0x0(%esi),%esi
 189:	8d bc 27 00 00 00 00 	lea    0x0(%edi,%eiz,1),%edi
 190:	83 c2 01             	add    $0x1,%edx
 193:	0f b6 02             	movzbl (%edx),%eax
 196:	83 c1 01             	add    $0x1,%ecx
 199:	0f b6 19             	movzbl (%ecx),%ebx
 19c:	84 c0                	test   %al,%al
 19e:	74 10                	je     1b0 <strcmp+0x40>
 1a0:	38 d8                	cmp    %bl,%al
 1a2:	74 ec                	je     190 <strcmp+0x20>
 1a4:	29 d8                	sub    %ebx,%eax
 1a6:	5b                   	pop    %ebx
 1a7:	5d                   	pop    %ebp
 1a8:	c3                   	ret    
 1a9:	8d b4 26 00 00 00 00 	lea    0x0(%esi,%eiz,1),%esi
 1b0:	31 c0                	xor    %eax,%eax
 1b2:	29 d8                	sub    %ebx,%eax
 1b4:	5b                   	pop    %ebx
 1b5:	5d                   	pop    %ebp
 1b6:	c3                   	ret    
 1b7:	89 f6                	mov    %esi,%esi
 1b9:	8d bc 27 00 00 00 00 	lea    0x0(%edi,%eiz,1),%edi

000001c0 <strlen>:
 1c0:	55                   	push   %ebp
 1c1:	89 e5                	mov    %esp,%ebp
 1c3:	8b 4d 08             	mov    0x8(%ebp),%ecx
 1c6:	80 39 00             	cmpb   $0x0,(%ecx)
 1c9:	74 15                	je     1e0 <strlen+0x20>
 1cb:	31 d2                	xor    %edx,%edx
 1cd:	8d 76 00             	lea    0x0(%esi),%esi
 1d0:	83 c2 01             	add    $0x1,%edx
 1d3:	80 3c 11 00          	cmpb   $0x0,(%ecx,%edx,1)
 1d7:	89 d0                	mov    %edx,%eax
 1d9:	75 f5                	jne    1d0 <strlen+0x10>
 1db:	5d                   	pop    %ebp
 1dc:	c3                   	ret    
 1dd:	8d 76 00             	lea    0x0(%esi),%esi
 1e0:	31 c0                	xor    %eax,%eax
 1e2:	5d                   	pop    %ebp
 1e3:	c3                   	ret    
 1e4:	8d b6 00 00 00 00    	lea    0x0(%esi),%esi
 1ea:	8d bf 00 00 00 00    	lea    0x0(%edi),%edi

000001f0 <memset>:
 1f0:	55                   	push   %ebp
 1f1:	89 e5                	mov    %esp,%ebp
 1f3:	57                   	push   %edi
 1f4:	8b 55 08             	mov    0x8(%ebp),%edx
 1f7:	8b 4d 10             	mov    0x10(%ebp),%ecx
 1fa:	8b 45 0c             	mov    0xc(%ebp),%eax
 1fd:	89 d7                	mov    %edx,%edi
 1ff:	fc                   	cld    
 200:	f3 aa                	rep stos %al,%es:(%edi)
 202:	89 d0                	mov    %edx,%eax
 204:	5f                   	pop    %edi
 205:	5d                   	pop    %ebp
 206:	c3                   	ret    
 207:	89 f6                	mov    %esi,%esi
 209:	8d bc 27 00 00 00 00 	lea    0x0(%edi,%eiz,1),%edi

00000210 <strchr>:
 210:	55                   	push   %ebp
 211:	89 e5                	mov    %esp,%ebp
 213:	53                   	push   %ebx
 214:	8b 45 08             	mov    0x8(%ebp),%eax
 217:	8b 5d 0c             	mov    0xc(%ebp),%ebx
 21a:	0f b6 10             	movzbl (%eax),%edx
 21d:	84 d2                	test   %dl,%dl
 21f:	74 1d                	je     23e <strchr+0x2e>
 221:	38 d3                	cmp    %dl,%bl
 223:	89 d9                	mov    %ebx,%ecx
 225:	75 0d                	jne    234 <strchr+0x24>
 227:	eb 17                	jmp    240 <strchr+0x30>
 229:	8d b4 26 00 00 00 00 	lea    0x0(%esi,%eiz,1),%esi
 230:	38 ca                	cmp    %cl,%dl
 232:	74 0c                	je     240 <strchr+0x30>
 234:	83 c0 01             	add    $0x1,%eax
 237:	0f b6 10             	movzbl (%eax),%edx
 23a:	84 d2                	test   %dl,%dl
 23c:	75 f2                	jne    230 <strchr+0x20>
 23e:	31 c0                	xor    %eax,%eax
 240:	5b                   	pop    %ebx
 241:	5d                   	pop    %ebp
 242:	c3                   	ret    
 243:	8d b6 00 00 00 00    	lea    0x0(%esi),%esi
 249:	8d bc 27 00 00 00 00 	lea    0x0(%edi,%eiz,1),%edi

00000250 <gets>:
 250:	55                   	push   %ebp
 251:	89 e5                	mov    %esp,%ebp
 253:	57                   	push   %edi
 254:	56                   	push   %esi
 255:	53                   	push   %ebx
 256:	31 f6                	xor    %esi,%esi
 258:	89 f3                	mov    %esi,%ebx
 25a:	83 ec 1c             	sub    $0x1c,%esp
 25d:	8b 7d 08             	mov    0x8(%ebp),%edi
 260:	eb 2f                	jmp    291 <gets+0x41>
 262:	8d b6 00 00 00 00    	lea    0x0(%esi),%esi
 268:	8d 45 e7             	lea    -0x19(%ebp),%eax
 26b:	83 ec 04             	sub    $0x4,%esp
 26e:	6a 01                	push   $0x1
 270:	50                   	push   %eax
 271:	6a 00                	push   $0x0
 273:	e8 32 01 00 00       	call   3aa <read>
 278:	83 c4 10             	add    $0x10,%esp
 27b:	85 c0                	test   %eax,%eax
 27d:	7e 1c                	jle    29b <gets+0x4b>
 27f:	0f b6 45 e7          	movzbl -0x19(%ebp),%eax
 283:	83 c7 01             	add    $0x1,%edi
 286:	88 47 ff             	mov    %al,-0x1(%edi)
 289:	3c 0a                	cmp    $0xa,%al
 28b:	74 23                	je     2b0 <gets+0x60>
 28d:	3c 0d                	cmp    $0xd,%al
 28f:	74 1f                	je     2b0 <gets+0x60>
 291:	83 c3 01             	add    $0x1,%ebx
 294:	3b 5d 0c             	cmp    0xc(%ebp),%ebx
 297:	89 fe                	mov    %edi,%esi
 299:	7c cd                	jl     268 <gets+0x18>
 29b:	89 f3                	mov    %esi,%ebx
 29d:	8b 45 08             	mov    0x8(%ebp),%eax
 2a0:	c6 03 00             	movb   $0x0,(%ebx)
 2a3:	8d 65 f4             	lea    -0xc(%ebp),%esp
 2a6:	5b                   	pop    %ebx
 2a7:	5e                   	pop    %esi
 2a8:	5f                   	pop    %edi
 2a9:	5d                   	pop    %ebp
 2aa:	c3                   	ret    
 2ab:	90                   	nop
 2ac:	8d 74 26 00          	lea    0x0(%esi,%eiz,1),%esi
 2b0:	8b 75 08             	mov    0x8(%ebp),%esi
 2b3:	8b 45 08             	mov    0x8(%ebp),%eax
 2b6:	01 de                	add    %ebx,%esi
 2b8:	89 f3                	mov    %esi,%ebx
 2ba:	c6 03 00             	movb   $0x0,(%ebx)
 2bd:	8d 65 f4             	lea    -0xc(%ebp),%esp
 2c0:	5b                   	pop    %ebx
 2c1:	5e                   	pop    %esi
 2c2:	5f                   	pop    %edi
 2c3:	5d                   	pop    %ebp
 2c4:	c3                   	ret    
 2c5:	8d 74 26 00          	lea    0x0(%esi,%eiz,1),%esi
 2c9:	8d bc 27 00 00 00 00 	lea    0x0(%edi,%eiz,1),%edi

000002d0 <stat>:
 2d0:	55                   	push   %ebp
 2d1:	89 e5                	mov    %esp,%ebp
 2d3:	56                   	push   %esi
 2d4:	53                   	push   %ebx
 2d5:	83 ec 08             	sub    $0x8,%esp
 2d8:	6a 00                	push   $0x0
 2da:	ff 75 08             	pushl  0x8(%ebp)
 2dd:	e8 f0 00 00 00       	call   3d2 <open>
 2e2:	83 c4 10             	add    $0x10,%esp
 2e5:	85 c0                	test   %eax,%eax
 2e7:	78 27                	js     310 <stat+0x40>
 2e9:	83 ec 08             	sub    $0x8,%esp
 2ec:	ff 75 0c             	pushl  0xc(%ebp)
 2ef:	89 c3                	mov    %eax,%ebx
 2f1:	50                   	push   %eax
 2f2:	e8 f3 00 00 00       	call   3ea <fstat>
 2f7:	89 1c 24             	mov    %ebx,(%esp)
 2fa:	89 c6                	mov    %eax,%esi
 2fc:	e8 b9 00 00 00       	call   3ba <close>
 301:	83 c4 10             	add    $0x10,%esp
 304:	8d 65 f8             	lea    -0x8(%ebp),%esp
 307:	89 f0                	mov    %esi,%eax
 309:	5b                   	pop    %ebx
 30a:	5e                   	pop    %esi
 30b:	5d                   	pop    %ebp
 30c:	c3                   	ret    
 30d:	8d 76 00             	lea    0x0(%esi),%esi
 310:	be ff ff ff ff       	mov    $0xffffffff,%esi
 315:	eb ed                	jmp    304 <stat+0x34>
 317:	89 f6                	mov    %esi,%esi
 319:	8d bc 27 00 00 00 00 	lea    0x0(%edi,%eiz,1),%edi

00000320 <atoi>:
 320:	55                   	push   %ebp
 321:	89 e5                	mov    %esp,%ebp
 323:	53                   	push   %ebx
 324:	8b 4d 08             	mov    0x8(%ebp),%ecx
 327:	0f be 11             	movsbl (%ecx),%edx
 32a:	8d 42 d0             	lea    -0x30(%edx),%eax
 32d:	3c 09                	cmp    $0x9,%al
 32f:	b8 00 00 00 00       	mov    $0x0,%eax
 334:	77 1f                	ja     355 <atoi+0x35>
 336:	8d 76 00             	lea    0x0(%esi),%esi
 339:	8d bc 27 00 00 00 00 	lea    0x0(%edi,%eiz,1),%edi
 340:	8d 04 80             	lea    (%eax,%eax,4),%eax
 343:	83 c1 01             	add    $0x1,%ecx
 346:	8d 44 42 d0          	lea    -0x30(%edx,%eax,2),%eax
 34a:	0f be 11             	movsbl (%ecx),%edx
 34d:	8d 5a d0             	lea    -0x30(%edx),%ebx
 350:	80 fb 09             	cmp    $0x9,%bl
 353:	76 eb                	jbe    340 <atoi+0x20>
 355:	5b                   	pop    %ebx
 356:	5d                   	pop    %ebp
 357:	c3                   	ret    
 358:	90                   	nop
 359:	8d b4 26 00 00 00 00 	lea    0x0(%esi,%eiz,1),%esi

00000360 <memmove>:
 360:	55                   	push   %ebp
 361:	89 e5                	mov    %esp,%ebp
 363:	56                   	push   %esi
 364:	53                   	push   %ebx
 365:	8b 5d 10             	mov    0x10(%ebp),%ebx
 368:	8b 45 08             	mov    0x8(%ebp),%eax
 36b:	8b 75 0c             	mov    0xc(%ebp),%esi
 36e:	85 db                	test   %ebx,%ebx
 370:	7e 14                	jle    386 <memmove+0x26>
 372:	31 d2                	xor    %edx,%edx
 374:	8d 74 26 00          	lea    0x0(%esi,%eiz,1),%esi
 378:	0f b6 0c 16          	movzbl (%esi,%edx,1),%ecx
 37c:	88 0c 10             	mov    %cl,(%eax,%edx,1)
 37f:	83 c2 01             	add    $0x1,%edx
 382:	39 d3                	cmp    %edx,%ebx
 384:	75 f2                	jne    378 <memmove+0x18>
 386:	5b                   	pop    %ebx
 387:	5e                   	pop    %esi
 388:	5d                   	pop    %ebp
 389:	c3                   	ret    

0000038a <fork>:
 38a:	b8 01 00 00 00       	mov    $0x1,%eax
 38f:	cd 40                	int    $0x40
 391:	c3                   	ret    

00000392 <exit>:
 392:	b8 02 00 00 00       	mov    $0x2,%eax
 397:	cd 40                	int    $0x40
 399:	c3                   	ret    

0000039a <wait>:
 39a:	b8 03 00 00 00       	mov    $0x3,%eax
 39f:	cd 40                	int    $0x40
 3a1:	c3                   	ret    

000003a2 <pipe>:
 3a2:	b8 04 00 00 00       	mov    $0x4,%eax
 3a7:	cd 40                	int    $0x40
 3a9:	c3                   	ret    

000003aa <read>:
 3aa:	b8 05 00 00 00       	mov    $0x5,%eax
 3af:	cd 40                	int    $0x40
 3b1:	c3                   	ret    

000003b2 <write>:
 3b2:	b8 10 00 00 00       	mov    $0x10,%eax
 3b7:	cd 40                	int    $0x40
 3b9:	c3                   	ret    

000003ba <close>:
 3ba:	b8 15 00 00 00       	mov    $0x15,%eax
 3bf:	cd 40                	int    $0x40
 3c1:	c3                   	ret    

000003c2 <kill>:
 3c2:	b8 06 00 00 00       	mov    $0x6,%eax
 3c7:	cd 40                	int    $0x40
 3c9:	c3                   	ret    

000003ca <exec>:
 3ca:	b8 07 00 00 00       	mov    $0x7,%eax
 3cf:	cd 40                	int    $0x40
 3d1:	c3                   	ret    

000003d2 <open>:
 3d2:	b8 0f 00 00 00       	mov    $0xf,%eax
 3d7:	cd 40                	int    $0x40
 3d9:	c3                   	ret    

000003da <mknod>:
 3da:	b8 11 00 00 00       	mov    $0x11,%eax
 3df:	cd 40                	int    $0x40
 3e1:	c3                   	ret    

000003e2 <unlink>:
 3e2:	b8 12 00 00 00       	mov    $0x12,%eax
 3e7:	cd 40                	int    $0x40
 3e9:	c3                   	ret    

000003ea <fstat>:
 3ea:	b8 08 00 00 00       	mov    $0x8,%eax
 3ef:	cd 40                	int    $0x40
 3f1:	c3                   	ret    

000003f2 <link>:
 3f2:	b8 13 00 00 00       	mov    $0x13,%eax
 3f7:	cd 40                	int    $0x40
 3f9:	c3                   	ret    

000003fa <mkdir>:
 3fa:	b8 14 00 00 00       	mov    $0x14,%eax
 3ff:	cd 40                	int    $0x40
 401:	c3                   	ret    

00000402 <chdir>:
 402:	b8 09 00 00 00       	mov    $0x9,%eax
 407:	cd 40                	int    $0x40
 409:	c3                   	ret    

0000040a <dup>:
 40a:	b8 0a 00 00 00       	mov    $0xa,%eax
 40f:	cd 40                	int    $0x40
 411:	c3                   	ret    

00000412 <getpid>:
 412:	b8 0b 00 00 00       	mov    $0xb,%eax
 417:	cd 40                	int    $0x40
 419:	c3                   	ret    

0000041a <sbrk>:
 41a:	b8 0c 00 00 00       	mov    $0xc,%eax
 41f:	cd 40                	int    $0x40
 421:	c3                   	ret    

00000422 <sleep>:
 422:	b8 0d 00 00 00       	mov    $0xd,%eax
 427:	cd 40                	int    $0x40
 429:	c3                   	ret    

0000042a <uptime>:
 42a:	b8 0e 00 00 00       	mov    $0xe,%eax
 42f:	cd 40                	int    $0x40
 431:	c3                   	ret    

00000432 <bstat>:
 432:	b8 16 00 00 00       	mov    $0x16,%eax
 437:	cd 40                	int    $0x40
 439:	c3                   	ret    

0000043a <swap>:
 43a:	b8 17 00 00 00       	mov    $0x17,%eax
 43f:	cd 40                	int    $0x40
 441:	c3                   	ret    
 442:	66 90                	xchg   %ax,%ax
 444:	66 90                	xchg   %ax,%ax
 446:	66 90                	xchg   %ax,%ax
 448:	66 90                	xchg   %ax,%ax
 44a:	66 90                	xchg   %ax,%ax
 44c:	66 90                	xchg   %ax,%ax
 44e:	66 90                	xchg   %ax,%ax

00000450 <printint>:
 450:	55                   	push   %ebp
 451:	89 e5                	mov    %esp,%ebp
 453:	57                   	push   %edi
 454:	56                   	push   %esi
 455:	53                   	push   %ebx
 456:	89 c6                	mov    %eax,%esi
 458:	83 ec 3c             	sub    $0x3c,%esp
 45b:	8b 5d 08             	mov    0x8(%ebp),%ebx
 45e:	85 db                	test   %ebx,%ebx
 460:	74 7e                	je     4e0 <printint+0x90>
 462:	89 d0                	mov    %edx,%eax
 464:	c1 e8 1f             	shr    $0x1f,%eax
 467:	84 c0                	test   %al,%al
 469:	74 75                	je     4e0 <printint+0x90>
 46b:	89 d0                	mov    %edx,%eax
 46d:	c7 45 c4 01 00 00 00 	movl   $0x1,-0x3c(%ebp)
 474:	f7 d8                	neg    %eax
 476:	89 75 c0             	mov    %esi,-0x40(%ebp)
 479:	31 ff                	xor    %edi,%edi
 47b:	8d 5d d7             	lea    -0x29(%ebp),%ebx
 47e:	89 ce                	mov    %ecx,%esi
 480:	eb 08                	jmp    48a <printint+0x3a>
 482:	8d b6 00 00 00 00    	lea    0x0(%esi),%esi
 488:	89 cf                	mov    %ecx,%edi
 48a:	31 d2                	xor    %edx,%edx
 48c:	8d 4f 01             	lea    0x1(%edi),%ecx
 48f:	f7 f6                	div    %esi
 491:	0f b6 92 84 08 00 00 	movzbl 0x884(%edx),%edx
 498:	85 c0                	test   %eax,%eax
 49a:	88 14 0b             	mov    %dl,(%ebx,%ecx,1)
 49d:	75 e9                	jne    488 <printint+0x38>
 49f:	8b 45 c4             	mov    -0x3c(%ebp),%eax
 4a2:	8b 75 c0             	mov    -0x40(%ebp),%esi
 4a5:	85 c0                	test   %eax,%eax
 4a7:	74 08                	je     4b1 <printint+0x61>
 4a9:	c6 44 0d d8 2d       	movb   $0x2d,-0x28(%ebp,%ecx,1)
 4ae:	8d 4f 02             	lea    0x2(%edi),%ecx
 4b1:	8d 7c 0d d7          	lea    -0x29(%ebp,%ecx,1),%edi
 4b5:	8d 76 00             	lea    0x0(%esi),%esi
 4b8:	0f b6 07             	movzbl (%edi),%eax
 4bb:	83 ec 04             	sub    $0x4,%esp
 4be:	83 ef 01             	sub    $0x1,%edi
 4c1:	6a 01                	push   $0x1
 4c3:	53                   	push   %ebx
 4c4:	56                   	push   %esi
 4c5:	88 45 d7             	mov    %al,-0x29(%ebp)
 4c8:	e8 e5 fe ff ff       	call   3b2 <write>
 4cd:	83 c4 10             	add    $0x10,%esp
 4d0:	39 df                	cmp    %ebx,%edi
 4d2:	75 e4                	jne    4b8 <printint+0x68>
 4d4:	8d 65 f4             	lea    -0xc(%ebp),%esp
 4d7:	5b                   	pop    %ebx
 4d8:	5e                   	pop    %esi
 4d9:	5f                   	pop    %edi
 4da:	5d                   	pop    %ebp
 4db:	c3                   	ret    
 4dc:	8d 74 26 00          	lea    0x0(%esi,%eiz,1),%esi
 4e0:	89 d0                	mov    %edx,%eax
 4e2:	c7 45 c4 00 00 00 00 	movl   $0x0,-0x3c(%ebp)
 4e9:	eb 8b                	jmp    476 <printint+0x26>
 4eb:	90                   	nop
 4ec:	8d 74 26 00          	lea    0x0(%esi,%eiz,1),%esi

000004f0 <printf>:
 4f0:	55                   	push   %ebp
 4f1:	89 e5                	mov    %esp,%ebp
 4f3:	57                   	push   %edi
 4f4:	56                   	push   %esi
 4f5:	53                   	push   %ebx
 4f6:	8d 45 10             	lea    0x10(%ebp),%eax
 4f9:	83 ec 2c             	sub    $0x2c,%esp
 4fc:	8b 75 0c             	mov    0xc(%ebp),%esi
 4ff:	8b 7d 08             	mov    0x8(%ebp),%edi
 502:	89 45 d0             	mov    %eax,-0x30(%ebp)
 505:	0f b6 1e             	movzbl (%esi),%ebx
 508:	83 c6 01             	add    $0x1,%esi
 50b:	84 db                	test   %bl,%bl
 50d:	0f 84 b0 00 00 00    	je     5c3 <printf+0xd3>
 513:	31 d2                	xor    %edx,%edx
 515:	eb 39                	jmp    550 <printf+0x60>
 517:	89 f6                	mov    %esi,%esi
 519:	8d bc 27 00 00 00 00 	lea    0x0(%edi,%eiz,1),%edi
 520:	83 f8 25             	cmp    $0x25,%eax
 523:	89 55 d4             	mov    %edx,-0x2c(%ebp)
 526:	ba 25 00 00 00       	mov    $0x25,%edx
 52b:	74 18                	je     545 <printf+0x55>
 52d:	8d 45 e2             	lea    -0x1e(%ebp),%eax
 530:	83 ec 04             	sub    $0x4,%esp
 533:	88 5d e2             	mov    %bl,-0x1e(%ebp)
 536:	6a 01                	push   $0x1
 538:	50                   	push   %eax
 539:	57                   	push   %edi
 53a:	e8 73 fe ff ff       	call   3b2 <write>
 53f:	8b 55 d4             	mov    -0x2c(%ebp),%edx
 542:	83 c4 10             	add    $0x10,%esp
 545:	83 c6 01             	add    $0x1,%esi
 548:	0f b6 5e ff          	movzbl -0x1(%esi),%ebx
 54c:	84 db                	test   %bl,%bl
 54e:	74 73                	je     5c3 <printf+0xd3>
 550:	85 d2                	test   %edx,%edx
 552:	0f be cb             	movsbl %bl,%ecx
 555:	0f b6 c3             	movzbl %bl,%eax
 558:	74 c6                	je     520 <printf+0x30>
 55a:	83 fa 25             	cmp    $0x25,%edx
 55d:	75 e6                	jne    545 <printf+0x55>
 55f:	83 f8 64             	cmp    $0x64,%eax
 562:	0f 84 f8 00 00 00    	je     660 <printf+0x170>
 568:	81 e1 f7 00 00 00    	and    $0xf7,%ecx
 56e:	83 f9 70             	cmp    $0x70,%ecx
 571:	74 5d                	je     5d0 <printf+0xe0>
 573:	83 f8 73             	cmp    $0x73,%eax
 576:	0f 84 84 00 00 00    	je     600 <printf+0x110>
 57c:	83 f8 63             	cmp    $0x63,%eax
 57f:	0f 84 ea 00 00 00    	je     66f <printf+0x17f>
 585:	83 f8 25             	cmp    $0x25,%eax
 588:	0f 84 c2 00 00 00    	je     650 <printf+0x160>
 58e:	8d 45 e7             	lea    -0x19(%ebp),%eax
 591:	83 ec 04             	sub    $0x4,%esp
 594:	c6 45 e7 25          	movb   $0x25,-0x19(%ebp)
 598:	6a 01                	push   $0x1
 59a:	50                   	push   %eax
 59b:	57                   	push   %edi
 59c:	e8 11 fe ff ff       	call   3b2 <write>
 5a1:	83 c4 0c             	add    $0xc,%esp
 5a4:	8d 45 e6             	lea    -0x1a(%ebp),%eax
 5a7:	88 5d e6             	mov    %bl,-0x1a(%ebp)
 5aa:	6a 01                	push   $0x1
 5ac:	50                   	push   %eax
 5ad:	57                   	push   %edi
 5ae:	83 c6 01             	add    $0x1,%esi
 5b1:	e8 fc fd ff ff       	call   3b2 <write>
 5b6:	0f b6 5e ff          	movzbl -0x1(%esi),%ebx
 5ba:	83 c4 10             	add    $0x10,%esp
 5bd:	31 d2                	xor    %edx,%edx
 5bf:	84 db                	test   %bl,%bl
 5c1:	75 8d                	jne    550 <printf+0x60>
 5c3:	8d 65 f4             	lea    -0xc(%ebp),%esp
 5c6:	5b                   	pop    %ebx
 5c7:	5e                   	pop    %esi
 5c8:	5f                   	pop    %edi
 5c9:	5d                   	pop    %ebp
 5ca:	c3                   	ret    
 5cb:	90                   	nop
 5cc:	8d 74 26 00          	lea    0x0(%esi,%eiz,1),%esi
 5d0:	83 ec 0c             	sub    $0xc,%esp
 5d3:	b9 10 00 00 00       	mov    $0x10,%ecx
 5d8:	6a 00                	push   $0x0
 5da:	8b 5d d0             	mov    -0x30(%ebp),%ebx
 5dd:	89 f8                	mov    %edi,%eax
 5df:	8b 13                	mov    (%ebx),%edx
 5e1:	e8 6a fe ff ff       	call   450 <printint>
 5e6:	89 d8                	mov    %ebx,%eax
 5e8:	83 c4 10             	add    $0x10,%esp
 5eb:	31 d2                	xor    %edx,%edx
 5ed:	83 c0 04             	add    $0x4,%eax
 5f0:	89 45 d0             	mov    %eax,-0x30(%ebp)
 5f3:	e9 4d ff ff ff       	jmp    545 <printf+0x55>
 5f8:	90                   	nop
 5f9:	8d b4 26 00 00 00 00 	lea    0x0(%esi,%eiz,1),%esi
 600:	8b 45 d0             	mov    -0x30(%ebp),%eax
 603:	8b 18                	mov    (%eax),%ebx
 605:	83 c0 04             	add    $0x4,%eax
 608:	89 45 d0             	mov    %eax,-0x30(%ebp)
 60b:	b8 7b 08 00 00       	mov    $0x87b,%eax
 610:	85 db                	test   %ebx,%ebx
 612:	0f 44 d8             	cmove  %eax,%ebx
 615:	0f b6 03             	movzbl (%ebx),%eax
 618:	84 c0                	test   %al,%al
 61a:	74 23                	je     63f <printf+0x14f>
 61c:	8d 74 26 00          	lea    0x0(%esi,%eiz,1),%esi
 620:	88 45 e3             	mov    %al,-0x1d(%ebp)
 623:	8d 45 e3             	lea    -0x1d(%ebp),%eax
 626:	83 ec 04             	sub    $0x4,%esp
 629:	6a 01                	push   $0x1
 62b:	83 c3 01             	add    $0x1,%ebx
 62e:	50                   	push   %eax
 62f:	57                   	push   %edi
 630:	e8 7d fd ff ff       	call   3b2 <write>
 635:	0f b6 03             	movzbl (%ebx),%eax
 638:	83 c4 10             	add    $0x10,%esp
 63b:	84 c0                	test   %al,%al
 63d:	75 e1                	jne    620 <printf+0x130>
 63f:	31 d2                	xor    %edx,%edx
 641:	e9 ff fe ff ff       	jmp    545 <printf+0x55>
 646:	8d 76 00             	lea    0x0(%esi),%esi
 649:	8d bc 27 00 00 00 00 	lea    0x0(%edi,%eiz,1),%edi
 650:	83 ec 04             	sub    $0x4,%esp
 653:	88 5d e5             	mov    %bl,-0x1b(%ebp)
 656:	8d 45 e5             	lea    -0x1b(%ebp),%eax
 659:	6a 01                	push   $0x1
 65b:	e9 4c ff ff ff       	jmp    5ac <printf+0xbc>
 660:	83 ec 0c             	sub    $0xc,%esp
 663:	b9 0a 00 00 00       	mov    $0xa,%ecx
 668:	6a 01                	push   $0x1
 66a:	e9 6b ff ff ff       	jmp    5da <printf+0xea>
 66f:	8b 5d d0             	mov    -0x30(%ebp),%ebx
 672:	83 ec 04             	sub    $0x4,%esp
 675:	8b 03                	mov    (%ebx),%eax
 677:	6a 01                	push   $0x1
 679:	88 45 e4             	mov    %al,-0x1c(%ebp)
 67c:	8d 45 e4             	lea    -0x1c(%ebp),%eax
 67f:	50                   	push   %eax
 680:	57                   	push   %edi
 681:	e8 2c fd ff ff       	call   3b2 <write>
 686:	e9 5b ff ff ff       	jmp    5e6 <printf+0xf6>
 68b:	66 90                	xchg   %ax,%ax
 68d:	66 90                	xchg   %ax,%ax
 68f:	90                   	nop

00000690 <free>:
 690:	55                   	push   %ebp
 691:	a1 60 0b 00 00       	mov    0xb60,%eax
 696:	89 e5                	mov    %esp,%ebp
 698:	57                   	push   %edi
 699:	56                   	push   %esi
 69a:	53                   	push   %ebx
 69b:	8b 5d 08             	mov    0x8(%ebp),%ebx
 69e:	8b 10                	mov    (%eax),%edx
 6a0:	8d 4b f8             	lea    -0x8(%ebx),%ecx
 6a3:	39 c8                	cmp    %ecx,%eax
 6a5:	73 19                	jae    6c0 <free+0x30>
 6a7:	89 f6                	mov    %esi,%esi
 6a9:	8d bc 27 00 00 00 00 	lea    0x0(%edi,%eiz,1),%edi
 6b0:	39 d1                	cmp    %edx,%ecx
 6b2:	72 1c                	jb     6d0 <free+0x40>
 6b4:	39 d0                	cmp    %edx,%eax
 6b6:	73 18                	jae    6d0 <free+0x40>
 6b8:	89 d0                	mov    %edx,%eax
 6ba:	39 c8                	cmp    %ecx,%eax
 6bc:	8b 10                	mov    (%eax),%edx
 6be:	72 f0                	jb     6b0 <free+0x20>
 6c0:	39 d0                	cmp    %edx,%eax
 6c2:	72 f4                	jb     6b8 <free+0x28>
 6c4:	39 d1                	cmp    %edx,%ecx
 6c6:	73 f0                	jae    6b8 <free+0x28>
 6c8:	90                   	nop
 6c9:	8d b4 26 00 00 00 00 	lea    0x0(%esi,%eiz,1),%esi
 6d0:	8b 73 fc             	mov    -0x4(%ebx),%esi
 6d3:	8d 3c f1             	lea    (%ecx,%esi,8),%edi
 6d6:	39 d7                	cmp    %edx,%edi
 6d8:	74 19                	je     6f3 <free+0x63>
 6da:	89 53 f8             	mov    %edx,-0x8(%ebx)
 6dd:	8b 50 04             	mov    0x4(%eax),%edx
 6e0:	8d 34 d0             	lea    (%eax,%edx,8),%esi
 6e3:	39 f1                	cmp    %esi,%ecx
 6e5:	74 23                	je     70a <free+0x7a>
 6e7:	89 08                	mov    %ecx,(%eax)
 6e9:	a3 60 0b 00 00       	mov    %eax,0xb60
 6ee:	5b                   	pop    %ebx
 6ef:	5e                   	pop    %esi
 6f0:	5f                   	pop    %edi
 6f1:	5d                   	pop    %ebp
 6f2:	c3                   	ret    
 6f3:	03 72 04             	add    0x4(%edx),%esi
 6f6:	89 73 fc             	mov    %esi,-0x4(%ebx)
 6f9:	8b 10                	mov    (%eax),%edx
 6fb:	8b 12                	mov    (%edx),%edx
 6fd:	89 53 f8             	mov    %edx,-0x8(%ebx)
 700:	8b 50 04             	mov    0x4(%eax),%edx
 703:	8d 34 d0             	lea    (%eax,%edx,8),%esi
 706:	39 f1                	cmp    %esi,%ecx
 708:	75 dd                	jne    6e7 <free+0x57>
 70a:	03 53 fc             	add    -0x4(%ebx),%edx
 70d:	a3 60 0b 00 00       	mov    %eax,0xb60
 712:	89 50 04             	mov    %edx,0x4(%eax)
 715:	8b 53 f8             	mov    -0x8(%ebx),%edx
 718:	89 10                	mov    %edx,(%eax)
 71a:	5b                   	pop    %ebx
 71b:	5e                   	pop    %esi
 71c:	5f                   	pop    %edi
 71d:	5d                   	pop    %ebp
 71e:	c3                   	ret    
 71f:	90                   	nop

00000720 <malloc>:
 720:	55                   	push   %ebp
 721:	89 e5                	mov    %esp,%ebp
 723:	57                   	push   %edi
 724:	56                   	push   %esi
 725:	53                   	push   %ebx
 726:	83 ec 0c             	sub    $0xc,%esp
 729:	8b 45 08             	mov    0x8(%ebp),%eax
 72c:	8b 15 60 0b 00 00    	mov    0xb60,%edx
 732:	8d 78 07             	lea    0x7(%eax),%edi
 735:	c1 ef 03             	shr    $0x3,%edi
 738:	83 c7 01             	add    $0x1,%edi
 73b:	85 d2                	test   %edx,%edx
 73d:	0f 84 a3 00 00 00    	je     7e6 <malloc+0xc6>
 743:	8b 02                	mov    (%edx),%eax
 745:	8b 48 04             	mov    0x4(%eax),%ecx
 748:	39 cf                	cmp    %ecx,%edi
 74a:	76 74                	jbe    7c0 <malloc+0xa0>
 74c:	81 ff 00 10 00 00    	cmp    $0x1000,%edi
 752:	be 00 10 00 00       	mov    $0x1000,%esi
 757:	8d 1c fd 00 00 00 00 	lea    0x0(,%edi,8),%ebx
 75e:	0f 43 f7             	cmovae %edi,%esi
 761:	ba 00 80 00 00       	mov    $0x8000,%edx
 766:	81 ff ff 0f 00 00    	cmp    $0xfff,%edi
 76c:	0f 46 da             	cmovbe %edx,%ebx
 76f:	eb 10                	jmp    781 <malloc+0x61>
 771:	8d b4 26 00 00 00 00 	lea    0x0(%esi,%eiz,1),%esi
 778:	8b 02                	mov    (%edx),%eax
 77a:	8b 48 04             	mov    0x4(%eax),%ecx
 77d:	39 cf                	cmp    %ecx,%edi
 77f:	76 3f                	jbe    7c0 <malloc+0xa0>
 781:	39 05 60 0b 00 00    	cmp    %eax,0xb60
 787:	89 c2                	mov    %eax,%edx
 789:	75 ed                	jne    778 <malloc+0x58>
 78b:	83 ec 0c             	sub    $0xc,%esp
 78e:	53                   	push   %ebx
 78f:	e8 86 fc ff ff       	call   41a <sbrk>
 794:	83 c4 10             	add    $0x10,%esp
 797:	83 f8 ff             	cmp    $0xffffffff,%eax
 79a:	74 1c                	je     7b8 <malloc+0x98>
 79c:	89 70 04             	mov    %esi,0x4(%eax)
 79f:	83 ec 0c             	sub    $0xc,%esp
 7a2:	83 c0 08             	add    $0x8,%eax
 7a5:	50                   	push   %eax
 7a6:	e8 e5 fe ff ff       	call   690 <free>
 7ab:	8b 15 60 0b 00 00    	mov    0xb60,%edx
 7b1:	83 c4 10             	add    $0x10,%esp
 7b4:	85 d2                	test   %edx,%edx
 7b6:	75 c0                	jne    778 <malloc+0x58>
 7b8:	31 c0                	xor    %eax,%eax
 7ba:	eb 1c                	jmp    7d8 <malloc+0xb8>
 7bc:	8d 74 26 00          	lea    0x0(%esi,%eiz,1),%esi
 7c0:	39 cf                	cmp    %ecx,%edi
 7c2:	74 1c                	je     7e0 <malloc+0xc0>
 7c4:	29 f9                	sub    %edi,%ecx
 7c6:	89 48 04             	mov    %ecx,0x4(%eax)
 7c9:	8d 04 c8             	lea    (%eax,%ecx,8),%eax
 7cc:	89 78 04             	mov    %edi,0x4(%eax)
 7cf:	89 15 60 0b 00 00    	mov    %edx,0xb60
 7d5:	83 c0 08             	add    $0x8,%eax
 7d8:	8d 65 f4             	lea    -0xc(%ebp),%esp
 7db:	5b                   	pop    %ebx
 7dc:	5e                   	pop    %esi
 7dd:	5f                   	pop    %edi
 7de:	5d                   	pop    %ebp
 7df:	c3                   	ret    
 7e0:	8b 08                	mov    (%eax),%ecx
 7e2:	89 0a                	mov    %ecx,(%edx)
 7e4:	eb e9                	jmp    7cf <malloc+0xaf>
 7e6:	c7 05 60 0b 00 00 64 	movl   $0xb64,0xb60
 7ed:	0b 00 00 
 7f0:	c7 05 64 0b 00 00 64 	movl   $0xb64,0xb64
 7f7:	0b 00 00 
 7fa:	b8 64 0b 00 00       	mov    $0xb64,%eax
 7ff:	c7 05 68 0b 00 00 00 	movl   $0x0,0xb68
 806:	00 00 00 
 809:	e9 3e ff ff ff       	jmp    74c <malloc+0x2c>
